; Function Attrs: mustprogress uwtable
define void @_ZNK6opencc8TextDict15SerializeToFileEP8_IO_FILE(ptr nocapture noundef nonnull readonly align 8 dereferenceable(40) %0, ptr nocapture noundef %1) unnamed_addr #3 align 2 {
  %3 = alloca %"class.std::__cxx11::basic_string", align 8
  %4 = getelementptr inbounds i8, ptr %0, i64 24
  %5 = load ptr, ptr %4, align 8
  %6 = load ptr, ptr %5, align 8
  %7 = getelementptr inbounds i8, ptr %5, i64 8
  %8 = load ptr, ptr %7, align 8
  %.not8 = icmp eq ptr %6, %8
  br i1 %.not8, label %._crit_edge, label %.lr.ph

.lr.ph:                                           ; preds = %2, %.lr.ph
  %.sroa.05.09 = phi ptr [ %15, %.lr.ph ], [ %6, %2 ]
  %9 = load ptr, ptr %.sroa.05.09, align 8
  %10 = load ptr, ptr %9, align 8
  %11 = getelementptr inbounds i8, ptr %10, i64 48
  %12 = load ptr, ptr %11, align 8
  call void %12(ptr dead_on_unwind nonnull writable sret(%"class.std::__cxx11::basic_string") align 8 %3, ptr noundef nonnull align 8 dereferenceable(8) %9)
  %13 = call noundef ptr @_ZNKSt7__cxx1112basic_stringIcSt11char_traitsIcESaIcEE5c_strEv(ptr noundef nonnull align 8 dereferenceable(32) %3) #20
  %14 = call i32 (ptr, ptr, ...) @fprintf(ptr noundef %1, ptr noundef nonnull @.str.3, ptr noundef %13) #20
  call void @_ZNSt7__cxx1112basic_stringIcSt11char_traitsIcESaIcEED1Ev(ptr noundef nonnull align 8 dereferenceable(32) %3) #20
  %15 = getelementptr inbounds i8, ptr %.sroa.05.09, i64 8
  %.not = icmp eq ptr %15, %8
  br i1 %.not, label %._crit_edge, label %.lr.ph

._crit_edge:                                      ; preds = %.lr.ph, %2
  ret void
}